target datalayout = "e-m:e-p270:32:32-p271:32:32-p272:64:64-i64:64-i128:128-f80:128-n8:16:32:64-S128"
target triple = "x86_64-pc-linux-gnu"

%class.CompactHashtableWriter = type { i32, i32, i32, i32, i32, ptr, ptr, ptr, ptr }
%class.GrowableArrayBase = type { i32, i32 }
%class.CompactHashtableStats = type { i32, i32, i32, i32 }
%class.Array = type { i32, [1 x i32] }
%class.ArchiveBuilder = type { ptr, ptr, ptr, ptr, i32, i64, ptr, ptr, ptr, ptr, ptr, ptr, i64, %class.ReservedSpace, %class.VirtualSpace, %class.DumpRegion, %class.DumpRegion, %class.CHeapBitMap, %class.CHeapBitMap, %class.CHeapBitMap, %"class.ArchiveBuilder::SourceObjList", %"class.ArchiveBuilder::SourceObjList", %class.ResizeableResourceHashtable, %class.ResizeableResourceHashtable.0, ptr, ptr, i32, %class.DumpAllocStats, i64, i64, i64 }
%class.ReservedSpace = type <{ ptr, i64, i64, i64, i64, i8, [3 x i8], i32, i8, [7 x i8] }>
%class.VirtualSpace = type { ptr, ptr, ptr, ptr, i8, i8, ptr, ptr, ptr, ptr, ptr, ptr, i64, i64, i64 }
%class.DumpRegion = type { ptr, ptr, ptr, ptr, i64, i8, ptr, ptr }
%class.CHeapBitMap = type <{ %class.GrowableBitMap, i8, [7 x i8] }>
%class.GrowableBitMap = type { %class.BitMap }
%class.BitMap = type { ptr, i64 }
%"class.ArchiveBuilder::SourceObjList" = type { i64, ptr, %class.CHeapBitMap }
%class.ResizeableResourceHashtable = type { %class.ResourceHashtableBase.base, i32 }
%class.ResourceHashtableBase.base = type <{ %class.ResizeableResourceHashtableStorage, i32 }>
%class.ResizeableResourceHashtableStorage = type { i32, ptr }
%class.ResizeableResourceHashtable.0 = type { %class.ResourceHashtableBase.base.3, i32 }
%class.ResourceHashtableBase.base.3 = type <{ %class.ResizeableResourceHashtableStorage.2, i32 }>
%class.ResizeableResourceHashtableStorage.2 = type { i32, ptr }
%class.DumpAllocStats = type { %class.CompactHashtableStats, %class.CompactHashtableStats, [2 x [23 x i32]], [2 x [23 x i32]], i32, i32, i32, i32, i32, i32, i32, i32, i32 }

@.str = private unnamed_addr constant [68 x i8] c"CompactHashtableWriter::allocate_table: Overflow! Too many entries.\00", align 1
@_ZN14ArchiveBuilder8_currentE = external global ptr, align 8

; Function Attrs: mustprogress nounwind uwtable
define linkonce_odr hidden noundef i64 @_Z10align_downImiTnNSt9enable_ifIXcvbsr3std11is_integralIT_EE5valueEiE4typeELi0EES1_S1_T0_(i64 noundef %0, i32 noundef %1) #1 comdat {
  %3 = alloca i64, align 8
  %4 = alloca i32, align 4
  %5 = alloca i64, align 8
  store i64 %0, ptr %3, align 8
  store i32 %1, ptr %4, align 4
  %6 = load i64, ptr %3, align 8
  %7 = load i32, ptr %4, align 4
  %8 = call noundef i32 @_ZL14alignment_maskIiTnNSt9enable_ifIXcvbsr3std11is_integralIT_EE5valueEiE4typeELi0EES1_S1_(i32 noundef %7)
  %9 = sext i32 %8 to i64
  %10 = xor i64 %9, -1
  %11 = and i64 %6, %10
  store i64 %11, ptr %5, align 8
  %12 = load i64, ptr %5, align 8
  ret i64 %12
}

; Function Attrs: mustprogress nounwind uwtable
define linkonce_odr hidden noundef i64 @_Z12checked_castImmET_T0_(i64 noundef %0) #1 comdat {
  %2 = alloca i64, align 8
  %3 = alloca i64, align 8
  store i64 %0, ptr %2, align 8
  %4 = load i64, ptr %2, align 8
  store i64 %4, ptr %3, align 8
  %5 = load i64, ptr %3, align 8
  ret i64 %5
}

; Function Attrs: mustprogress nounwind uwtable
define linkonce_odr hidden noundef i64 @_Z8align_upImiTnNSt9enable_ifIXcvbsr3std11is_integralIT_EE5valueEiE4typeELi0EES1_S1_T0_(i64 noundef %0, i32 noundef %1) #1 comdat {
  %3 = alloca i64, align 8
  %4 = alloca i32, align 4
  %5 = alloca i64, align 8
  store i64 %0, ptr %3, align 8
  store i32 %1, ptr %4, align 4
  %6 = load i64, ptr %3, align 8
  %7 = load i32, ptr %4, align 4
  %8 = call noundef i32 @_ZL14alignment_maskIiTnNSt9enable_ifIXcvbsr3std11is_integralIT_EE5valueEiE4typeELi0EES1_S1_(i32 noundef %7)
  %9 = sext i32 %8 to i64
  %10 = add i64 %6, %9
  %11 = call noundef i64 @_Z12checked_castImmET_T0_(i64 noundef %10)
  store i64 %11, ptr %5, align 8
  %12 = load i64, ptr %5, align 8
  %13 = load i32, ptr %4, align 4
  %14 = call noundef i64 @_Z10align_downImiTnNSt9enable_ifIXcvbsr3std11is_integralIT_EE5valueEiE4typeELi0EES1_S1_T0_(i64 noundef %12, i32 noundef %13)
  ret i64 %14
}

; Function Attrs: mustprogress nounwind uwtable
define linkonce_odr hidden noundef i64 @_ZN5ArrayIjE11byte_sizeofEi(i32 noundef %0) #1 comdat align 2 {
  %2 = alloca i32, align 4
  store i32 %0, ptr %2, align 4
  %3 = load i32, ptr %2, align 4
  %4 = call noundef i64 @_ZN5ArrayIjE11byte_sizeofEim(i32 noundef %3, i64 noundef 4)
  ret i64 %4
}

; Function Attrs: mustprogress nounwind uwtable
define linkonce_odr hidden noundef ptr @_ZN14ArchiveBuilder9ro_regionEv(ptr noundef nonnull align 8 dereferenceable(1080) %0) #1 comdat align 2 {
  %2 = alloca ptr, align 8
  store ptr %0, ptr %2, align 8
  %3 = load ptr, ptr %2, align 8
  %4 = getelementptr inbounds %class.ArchiveBuilder, ptr %3, i32 0, i32 16
  ret ptr %4
}

; Function Attrs: mustprogress nounwind uwtable
define linkonce_odr hidden noundef ptr @_ZN14ArchiveBuilder7currentEv() #1 comdat align 2 {
  %1 = load ptr, ptr @_ZN14ArchiveBuilder8_currentE, align 8
  ret ptr %1
}

; Function Attrs: mustprogress nounwind uwtable
define linkonce_odr hidden noundef i32 @_Z4MAX2IiET_S0_S0_(i32 noundef %0, i32 noundef %1) #1 comdat {
  %3 = alloca i32, align 4
  %4 = alloca i32, align 4
  store i32 %0, ptr %3, align 4
  store i32 %1, ptr %4, align 4
  %5 = load i32, ptr %3, align 4
  %6 = load i32, ptr %4, align 4
  %7 = icmp sgt i32 %5, %6
  br i1 %7, label %8, label %10

8:                                                ; preds = %2
  %9 = load i32, ptr %3, align 4
  br label %12

10:                                               ; preds = %2
  %11 = load i32, ptr %4, align 4
  br label %12

12:                                               ; preds = %10, %8
  %13 = phi i32 [ %9, %8 ], [ %11, %10 ]
  ret i32 %13
}

; Function Attrs: mustprogress nounwind uwtable
define linkonce_odr hidden noundef i32 @_Z10align_downIiiTnNSt9enable_ifIXcvbsr3std11is_integralIT_EE5valueEiE4typeELi0EES1_S1_T0_(i32 noundef %0, i32 noundef %1) #1 comdat {
  %3 = alloca i32, align 4
  %4 = alloca i32, align 4
  %5 = alloca i32, align 4
  store i32 %0, ptr %3, align 4
  store i32 %1, ptr %4, align 4
  %6 = load i32, ptr %3, align 4
  %7 = load i32, ptr %4, align 4
  %8 = call noundef i32 @_ZL14alignment_maskIiTnNSt9enable_ifIXcvbsr3std11is_integralIT_EE5valueEiE4typeELi0EES1_S1_(i32 noundef %7)
  %9 = xor i32 %8, -1
  %10 = and i32 %6, %9
  store i32 %10, ptr %5, align 4
  %11 = load i32, ptr %5, align 4
  ret i32 %11
}

; Function Attrs: mustprogress nounwind uwtable
define linkonce_odr hidden noundef i32 @_Z12checked_castIiiET_T0_(i32 noundef %0) #1 comdat {
  %2 = alloca i32, align 4
  %3 = alloca i32, align 4
  store i32 %0, ptr %2, align 4
  %4 = load i32, ptr %2, align 4
  store i32 %4, ptr %3, align 4
  %5 = load i32, ptr %3, align 4
  ret i32 %5
}

; Function Attrs: mustprogress nounwind uwtable
define internal noundef i32 @_ZL14alignment_maskIiTnNSt9enable_ifIXcvbsr3std11is_integralIT_EE5valueEiE4typeELi0EES1_S1_(i32 noundef %0) #1 {
  %2 = alloca i32, align 4
  store i32 %0, ptr %2, align 4
  %3 = load i32, ptr %2, align 4
  %4 = sub nsw i32 %3, 1
  ret i32 %4
}

; Function Attrs: mustprogress nounwind uwtable
define linkonce_odr hidden noundef i32 @_ZN5ArrayIjE4sizeEi(i32 noundef %0) #1 comdat align 2 {
  %2 = alloca i32, align 4
  %3 = alloca i64, align 8
  %4 = alloca i64, align 8
  store i32 %0, ptr %2, align 4
  %5 = load i32, ptr %2, align 4
  %6 = call noundef i64 @_ZN5ArrayIjE11byte_sizeofEi(i32 noundef %5)
  %7 = call noundef i64 @_Z8align_upImiTnNSt9enable_ifIXcvbsr3std11is_integralIT_EE5valueEiE4typeELi0EES1_S1_T0_(i64 noundef %6, i32 noundef 8)
  store i64 %7, ptr %3, align 8
  %8 = load i64, ptr %3, align 8
  %9 = udiv i64 %8, 8
  store i64 %9, ptr %4, align 8
  %10 = load i64, ptr %4, align 8
  %11 = trunc i64 %10 to i32
  ret i32 %11
}

; Function Attrs: mustprogress nounwind uwtable
define linkonce_odr hidden void @_ZN5ArrayIjE10initializeEi(ptr noundef nonnull align 4 dereferenceable(8) %0, i32 noundef %1) #1 comdat align 2 {
  %3 = alloca ptr, align 8
  %4 = alloca i32, align 4
  store ptr %0, ptr %3, align 8
  store i32 %1, ptr %4, align 4
  %5 = load ptr, ptr %3, align 8
  %6 = load i32, ptr %4, align 4
  %7 = getelementptr inbounds %class.Array, ptr %5, i32 0, i32 0
  store i32 %6, ptr %7, align 4
  ret void
}

; Function Attrs: mustprogress nounwind uwtable
define linkonce_odr hidden noundef ptr @_ZN14ArchiveBuilder15ro_region_allocEm(i64 noundef %0) #1 comdat align 2 {
  %2 = alloca i64, align 8
  store i64 %0, ptr %2, align 8
  %3 = call noundef ptr @_ZN14ArchiveBuilder7currentEv()
  %4 = call noundef ptr @_ZN14ArchiveBuilder9ro_regionEv(ptr noundef nonnull align 8 dereferenceable(1080) %3)
  %5 = load i64, ptr %2, align 8
  %6 = call noundef ptr @_ZN10DumpRegion8allocateEm(ptr noundef nonnull align 8 dereferenceable(64) %4, i64 noundef %5)
  ret ptr %6
}

; Function Attrs: mustprogress nounwind uwtable
define linkonce_odr hidden noundef i64 @_ZN5ArrayIjE11byte_sizeofEim(i32 noundef %0, i64 noundef %1) #1 comdat align 2 {
  %3 = alloca i32, align 4
  %4 = alloca i64, align 8
  store i32 %0, ptr %3, align 4
  store i64 %1, ptr %4, align 8
  %5 = load i32, ptr %3, align 4
  %6 = sub nsw i32 %5, 1
  %7 = call noundef i32 @_Z4MAX2IiET_S0_S0_(i32 noundef %6, i32 noundef 0)
  %8 = sext i32 %7 to i64
  %9 = load i64, ptr %4, align 8
  %10 = mul i64 %8, %9
  %11 = add i64 8, %10
  ret i64 %11
}

; Function Attrs: mustprogress nounwind uwtable
define linkonce_odr hidden noundef i32 @_Z8align_upIiiTnNSt9enable_ifIXcvbsr3std11is_integralIT_EE5valueEiE4typeELi0EES1_S1_T0_(i32 noundef %0, i32 noundef %1) #1 comdat {
  %3 = alloca i32, align 4
  %4 = alloca i32, align 4
  %5 = alloca i32, align 4
  store i32 %0, ptr %3, align 4
  store i32 %1, ptr %4, align 4
  %6 = load i32, ptr %3, align 4
  %7 = load i32, ptr %4, align 4
  %8 = call noundef i32 @_ZL14alignment_maskIiTnNSt9enable_ifIXcvbsr3std11is_integralIT_EE5valueEiE4typeELi0EES1_S1_(i32 noundef %7)
  %9 = add nsw i32 %6, %8
  %10 = call noundef i32 @_Z12checked_castIiiET_T0_(i32 noundef %9)
  store i32 %10, ptr %5, align 4
  %11 = load i32, ptr %5, align 4
  %12 = load i32, ptr %4, align 4
  %13 = call noundef i32 @_Z10align_downIiiTnNSt9enable_ifIXcvbsr3std11is_integralIT_EE5valueEiE4typeELi0EES1_S1_T0_(i32 noundef %11, i32 noundef %12)
  ret i32 %13
}

; Function Attrs: mustprogress nounwind uwtable
define linkonce_odr hidden noundef i32 @_ZN5ArrayIjE4sizeEv(ptr noundef nonnull align 4 dereferenceable(8) %0) #1 comdat align 2 {
  %2 = alloca ptr, align 8
  store ptr %0, ptr %2, align 8
  %3 = load ptr, ptr %2, align 8
  %4 = getelementptr inbounds %class.Array, ptr %3, i32 0, i32 0
  %5 = load i32, ptr %4, align 4
  %6 = call noundef i32 @_ZN5ArrayIjE4sizeEi(i32 noundef %5)
  ret i32 %6
}

; Function Attrs: mustprogress nounwind uwtable
define linkonce_odr hidden noundef ptr @_ZN14ArchiveBuilder12new_ro_arrayIjEEP5ArrayIT_Ei(i32 noundef %0) #1 comdat align 2 {
  %2 = alloca i32, align 4
  %3 = alloca i64, align 8
  %4 = alloca ptr, align 8
  store i32 %0, ptr %2, align 4
  %5 = load i32, ptr %2, align 4
  %6 = call noundef i64 @_ZN5ArrayIjE11byte_sizeofEim(i32 noundef %5, i64 noundef 4)
  store i64 %6, ptr %3, align 8
  %7 = load i64, ptr %3, align 8
  %8 = call noundef ptr @_ZN14ArchiveBuilder15ro_region_allocEm(i64 noundef %7)
  store ptr %8, ptr %4, align 8
  %9 = load ptr, ptr %4, align 8
  %10 = load i32, ptr %2, align 4
  call void @_ZN5ArrayIjE10initializeEi(ptr noundef nonnull align 4 dereferenceable(8) %9, i32 noundef %10)
  %11 = load ptr, ptr %4, align 8
  ret ptr %11
}

; Function Attrs: mustprogress nounwind uwtable
define linkonce_odr hidden noundef i32 @_ZNK17GrowableArrayBase6lengthEv(ptr noundef nonnull align 4 dereferenceable(8) %0) #1 comdat align 2 {
  %2 = alloca ptr, align 8
  store ptr %0, ptr %2, align 8
  %3 = load ptr, ptr %2, align 8
  %4 = getelementptr inbounds %class.GrowableArrayBase, ptr %3, i32 0, i32 0
  %5 = load i32, ptr %4, align 4
  ret i32 %5
}

; Function Attrs: mustprogress nounwind uwtable
define hidden void @_ZN22CompactHashtableWriter14allocate_tableEv(ptr noundef nonnull align 8 dereferenceable(56) %0) #1 align 2 {
  %2 = alloca ptr, align 8
  %3 = alloca i32, align 4
  %4 = alloca i32, align 4
  %5 = alloca ptr, align 8
  %6 = alloca i32, align 4
  store ptr %0, ptr %2, align 8
  %7 = load ptr, ptr %2, align 8
  store i32 0, ptr %3, align 4
  store i32 0, ptr %4, align 4
  br label %8

8:                                                ; preds = %37, %1
  %9 = load i32, ptr %4, align 4
  %10 = getelementptr inbounds %class.CompactHashtableWriter, ptr %7, i32 0, i32 1
  %11 = load i32, ptr %10, align 4
  %12 = icmp slt i32 %9, %11
  br i1 %12, label %13, label %40

13:                                               ; preds = %8
  %14 = getelementptr inbounds %class.CompactHashtableWriter, ptr %7, i32 0, i32 5
  %15 = load ptr, ptr %14, align 8
  %16 = load i32, ptr %4, align 4
  %17 = sext i32 %16 to i64
  %18 = getelementptr inbounds ptr, ptr %15, i64 %17
  %19 = load ptr, ptr %18, align 8
  store ptr %19, ptr %5, align 8
  %20 = load ptr, ptr %5, align 8
  %21 = call noundef i32 @_ZNK17GrowableArrayBase6lengthEv(ptr noundef nonnull align 4 dereferenceable(8) %20)
  store i32 %21, ptr %6, align 4
  %22 = load i32, ptr %6, align 4
  %23 = icmp eq i32 %22, 1
  br i1 %23, label %24, label %27

24:                                               ; preds = %13
  %25 = load i32, ptr %3, align 4
  %26 = add nsw i32 %25, 1
  store i32 %26, ptr %3, align 4
  br label %36

27:                                               ; preds = %13
  %28 = load i32, ptr %6, align 4
  %29 = icmp sgt i32 %28, 1
  br i1 %29, label %30, label %35

30:                                               ; preds = %27
  %31 = load i32, ptr %6, align 4
  %32 = mul nsw i32 2, %31
  %33 = load i32, ptr %3, align 4
  %34 = add nsw i32 %33, %32
  store i32 %34, ptr %3, align 4
  br label %35

35:                                               ; preds = %30, %27
  br label %36

36:                                               ; preds = %35, %24
  br label %37

37:                                               ; preds = %36
  %38 = load i32, ptr %4, align 4
  %39 = add nsw i32 %38, 1
  store i32 %39, ptr %4, align 4
  br label %8, !llvm.loop !9

40:                                               ; preds = %8
  %41 = load i32, ptr %3, align 4
  %42 = and i32 %41, -1073741824
  %43 = icmp ne i32 %42, 0
  br i1 %43, label %44, label %45

44:                                               ; preds = %40
  call void @_Z29vm_exit_during_initializationPKcS0_(ptr noundef @.str, ptr noundef null)
  br label %45

45:                                               ; preds = %44, %40
  %46 = getelementptr inbounds %class.CompactHashtableWriter, ptr %7, i32 0, i32 1
  %47 = load i32, ptr %46, align 4
  %48 = add nsw i32 %47, 1
  %49 = call noundef ptr @_ZN14ArchiveBuilder12new_ro_arrayIjEEP5ArrayIT_Ei(i32 noundef %48)
  %50 = getelementptr inbounds %class.CompactHashtableWriter, ptr %7, i32 0, i32 7
  store ptr %49, ptr %50, align 8
  %51 = load i32, ptr %3, align 4
  %52 = call noundef ptr @_ZN14ArchiveBuilder12new_ro_arrayIjEEP5ArrayIT_Ei(i32 noundef %51)
  %53 = getelementptr inbounds %class.CompactHashtableWriter, ptr %7, i32 0, i32 8
  store ptr %52, ptr %53, align 8
  %54 = getelementptr inbounds %class.CompactHashtableWriter, ptr %7, i32 0, i32 1
  %55 = load i32, ptr %54, align 4
  %56 = getelementptr inbounds %class.CompactHashtableWriter, ptr %7, i32 0, i32 6
  %57 = load ptr, ptr %56, align 8
  %58 = getelementptr inbounds %class.CompactHashtableStats, ptr %57, i32 0, i32 2
  store i32 %55, ptr %58, align 4
  %59 = getelementptr inbounds %class.CompactHashtableWriter, ptr %7, i32 0, i32 7
  %60 = load ptr, ptr %59, align 8
  %61 = call noundef i32 @_ZN5ArrayIjE4sizeEv(ptr noundef nonnull align 4 dereferenceable(8) %60)
  %62 = mul nsw i32 %61, 8
  %63 = call noundef i32 @_Z8align_upIiiTnNSt9enable_ifIXcvbsr3std11is_integralIT_EE5valueEiE4typeELi0EES1_S1_T0_(i32 noundef %62, i32 noundef 8)
  %64 = getelementptr inbounds %class.CompactHashtableWriter, ptr %7, i32 0, i32 6
  %65 = load ptr, ptr %64, align 8
  %66 = getelementptr inbounds %class.CompactHashtableStats, ptr %65, i32 0, i32 3
  store i32 %63, ptr %66, align 4
  %67 = getelementptr inbounds %class.CompactHashtableWriter, ptr %7, i32 0, i32 0
  %68 = load i32, ptr %67, align 8
  %69 = getelementptr inbounds %class.CompactHashtableWriter, ptr %7, i32 0, i32 6
  %70 = load ptr, ptr %69, align 8
  %71 = getelementptr inbounds %class.CompactHashtableStats, ptr %70, i32 0, i32 0
  store i32 %68, ptr %71, align 4
  %72 = getelementptr inbounds %class.CompactHashtableWriter, ptr %7, i32 0, i32 8
  %73 = load ptr, ptr %72, align 8
  %74 = call noundef i32 @_ZN5ArrayIjE4sizeEv(ptr noundef nonnull align 4 dereferenceable(8) %73)
  %75 = mul nsw i32 %74, 8
  %76 = call noundef i32 @_Z8align_upIiiTnNSt9enable_ifIXcvbsr3std11is_integralIT_EE5valueEiE4typeELi0EES1_S1_T0_(i32 noundef %75, i32 noundef 8)
  %77 = getelementptr inbounds %class.CompactHashtableWriter, ptr %7, i32 0, i32 6
  %78 = load ptr, ptr %77, align 8
  %79 = getelementptr inbounds %class.CompactHashtableStats, ptr %78, i32 0, i32 1
  store i32 %76, ptr %79, align 4
  ret void
}