; Function Attrs: mustprogress nounwind uwtable
define hidden void @_ZN22CompactHashtableWriter14allocate_tableEv(ptr nocapture noundef nonnull align 8 dereferenceable(56) %0) local_unnamed_addr #0 align 2 {
  %2 = getelementptr inbounds i8, ptr %0, i64 4
  %3 = load i32, ptr %2, align 4
  %4 = icmp sgt i32 %3, 0
  br i1 %4, label %.lr.ph, label %._crit_edge.thread

.lr.ph:                                           ; preds = %1
  %5 = getelementptr inbounds i8, ptr %0, i64 24
  %6 = load ptr, ptr %5, align 8
  %wide.trip.count = zext nneg i32 %3 to i64
  br label %7

7:                                                ; preds = %.lr.ph, %19
  %indvars.iv = phi i64 [ 0, %.lr.ph ], [ %indvars.iv.next, %19 ]
  %.015 = phi i32 [ 0, %.lr.ph ], [ %.1, %19 ]
  %8 = getelementptr inbounds ptr, ptr %6, i64 %indvars.iv
  %9 = load ptr, ptr %8, align 8
  %10 = load i32, ptr %9, align 4
  %11 = icmp eq i32 %10, 1
  br i1 %11, label %12, label %14

12:                                               ; preds = %7
  %13 = add nuw nsw i32 %.015, 1
  br label %19

14:                                               ; preds = %7
  %15 = icmp sgt i32 %10, 1
  br i1 %15, label %16, label %19

16:                                               ; preds = %14
  %17 = shl nuw nsw i32 %10, 1
  %18 = add nuw nsw i32 %17, %.015
  br label %19

19:                                               ; preds = %12, %16, %14
  %.1 = phi i32 [ %13, %12 ], [ %18, %16 ], [ %.015, %14 ]
  %indvars.iv.next = add nuw nsw i64 %indvars.iv, 1
  %exitcond.not = icmp eq i64 %indvars.iv.next, %wide.trip.count
  br i1 %exitcond.not, label %._crit_edge, label %7, !llvm.loop !10

._crit_edge:                                      ; preds = %19
  %.not = icmp ult i32 %.1, 1073741824
  br i1 %.not, label %._crit_edge.thread, label %20

20:                                               ; preds = %._crit_edge
  tail call void @_Z29vm_exit_during_initializationPKcS0_(ptr noundef nonnull @.str, ptr noundef null) #14
  %.pre = load i32, ptr %2, align 4
  br label %._crit_edge.thread

._crit_edge.thread:                               ; preds = %1, %20, %._crit_edge
  %.0.lcssa19 = phi i32 [ %.1, %20 ], [ %.1, %._crit_edge ], [ 0, %1 ]
  %21 = phi i32 [ %.pre, %20 ], [ %3, %._crit_edge ], [ %3, %1 ]
  %22 = add nsw i32 %21, 1
  %23 = tail call i32 @llvm.smax.i32(i32 %22, i32 1)
  %24 = add nsw i32 %23, -1
  %25 = zext nneg i32 %24 to i64
  %26 = shl nuw nsw i64 %25, 2
  %27 = add nuw nsw i64 %26, 8
  %28 = load ptr, ptr @_ZN14ArchiveBuilder8_currentE, align 8
  %29 = getelementptr inbounds i8, ptr %28, i64 336
  %30 = tail call noundef ptr @_ZN10DumpRegion8allocateEm(ptr noundef nonnull align 8 dereferenceable(64) %29, i64 noundef %27) #14
  store i32 %22, ptr %30, align 4
  %31 = getelementptr inbounds i8, ptr %0, i64 40
  store ptr %30, ptr %31, align 8
  %32 = tail call i32 @llvm.smax.i32(i32 %.0.lcssa19, i32 1)
  %33 = add nsw i32 %32, -1
  %34 = zext nneg i32 %33 to i64
  %35 = shl nuw nsw i64 %34, 2
  %36 = add nuw nsw i64 %35, 8
  %37 = load ptr, ptr @_ZN14ArchiveBuilder8_currentE, align 8
  %38 = getelementptr inbounds i8, ptr %37, i64 336
  %39 = tail call noundef ptr @_ZN10DumpRegion8allocateEm(ptr noundef nonnull align 8 dereferenceable(64) %38, i64 noundef %36) #14
  store i32 %.0.lcssa19, ptr %39, align 4
  %40 = getelementptr inbounds i8, ptr %0, i64 48
  store ptr %39, ptr %40, align 8
  %41 = load i32, ptr %2, align 4
  %42 = getelementptr inbounds i8, ptr %0, i64 32
  %43 = load ptr, ptr %42, align 8
  %44 = getelementptr inbounds i8, ptr %43, i64 8
  store i32 %41, ptr %44, align 4
  %45 = load ptr, ptr %31, align 8
  %46 = load i32, ptr %45, align 4
  %47 = tail call i32 @llvm.smax.i32(i32 %46, i32 1)
  %48 = shl i32 %47, 2
  %tr.sh.diff = add i32 %48, 11
  %49 = and i32 %tr.sh.diff, -8
  %50 = load ptr, ptr %42, align 8
  %51 = getelementptr inbounds i8, ptr %50, i64 12
  store i32 %49, ptr %51, align 4
  %52 = load i32, ptr %0, align 8
  %53 = load ptr, ptr %42, align 8
  store i32 %52, ptr %53, align 4
  %54 = load ptr, ptr %40, align 8
  %55 = load i32, ptr %54, align 4
  %56 = tail call i32 @llvm.smax.i32(i32 %55, i32 1)
  %57 = shl i32 %56, 2
  %tr.sh.diff13 = add i32 %57, 11
  %58 = and i32 %tr.sh.diff13, -8
  %59 = load ptr, ptr %42, align 8
  %60 = getelementptr inbounds i8, ptr %59, i64 4
  store i32 %58, ptr %60, align 4
  ret void
}